target datalayout = "e-m:e-p270:32:32-p271:32:32-p272:64:64-i64:64-i128:128-f80:128-n8:16:32:64-S128"
target triple = "x86_64-pc-linux-gnu"

%class.Statement = type { ptr, i32, i32, ptr, ptr }

; Function Attrs: mustprogress nounwind uwtable
define dso_local noundef i32 @_ZNK9Statement13get_blk_depthEv(ptr noundef nonnull align 8 dereferenceable(32) %0) #4 align 2 {
  %2 = alloca ptr, align 8
  %3 = alloca i32, align 4
  %4 = alloca ptr, align 8
  store ptr %0, ptr %2, align 8
  %5 = load ptr, ptr %2, align 8
  store i32 0, ptr %3, align 4
  %6 = getelementptr inbounds %class.Statement, ptr %5, i32 0, i32 4
  %7 = load ptr, ptr %6, align 8
  store ptr %7, ptr %4, align 8
  br label %8

8:                                                ; preds = %14, %1
  %9 = load ptr, ptr %4, align 8
  %10 = icmp ne ptr %9, null
  br i1 %10, label %11, label %18

11:                                               ; preds = %8
  %12 = load i32, ptr %3, align 4
  %13 = add nsw i32 %12, 1
  store i32 %13, ptr %3, align 4
  br label %14

14:                                               ; preds = %11
  %15 = load ptr, ptr %4, align 8
  %16 = getelementptr inbounds %class.Statement, ptr %15, i32 0, i32 4
  %17 = load ptr, ptr %16, align 8
  store ptr %17, ptr %4, align 8
  br label %8, !llvm.loop !10

18:                                               ; preds = %8
  %19 = load i32, ptr %3, align 4
  ret i32 %19
}