; Function Attrs: mustprogress nofree norecurse nosync nounwind willreturn memory(read, inaccessiblemem: none) uwtable
define dso_local noundef i32 @_ZNK9Statement13get_blk_depthEv(ptr nocapture noundef nonnull readonly align 8 dereferenceable(32) %0) local_unnamed_addr #7 align 2 {
  br label %2

2:                                                ; preds = %2, %1
  %.04 = phi i32 [ 0, %1 ], [ %3, %2 ]
  %.pn = phi ptr [ %0, %1 ], [ %.0, %2 ]
  %.0.in = getelementptr inbounds i8, ptr %.pn, i64 24
  %.0 = load ptr, ptr %.0.in, align 8
  %.not = icmp eq ptr %.0, null
  %3 = add nuw nsw i32 %.04, 1
  br i1 %.not, label %4, label %2, !llvm.loop !21

4:                                                ; preds = %2
  ret i32 %.04
}